; Function Attrs: mustprogress norecurse uwtable
define hidden noundef range(i32 -1, 1) i32 @main(i32 noundef %0, ptr nocapture noundef readnone %1) local_unnamed_addr #3 personality ptr @__gxx_personality_v0 {
  %3 = alloca %"class.cv::Mat", align 8
  %4 = alloca %"class.cv::VideoCapture", align 8
  %5 = alloca %"class.cv::_OutputArray", align 8
  %6 = alloca %"class.std::__cxx11::basic_string", align 8
  %7 = alloca %"class.std::allocator", align 1
  %8 = alloca %"class.cv::_InputArray", align 8
  call void @_ZN2cv3MatC1Ev(ptr noundef nonnull align 8 dereferenceable(96) %3) #5
  invoke void @_ZN2cv12VideoCaptureC1Ev(ptr noundef nonnull align 8 dereferenceable(41) %4)
          to label %9 unwind label %16

9:                                                ; preds = %2
  %10 = invoke noundef zeroext i1 @_ZN2cv12VideoCapture4openEii(ptr noundef nonnull align 8 dereferenceable(41) %4, i32 noundef 0, i32 noundef 0)
          to label %11 unwind label %.loopexit.split-lp

11:                                               ; preds = %9
  %12 = invoke noundef zeroext i1 @_ZNK2cv12VideoCapture8isOpenedEv(ptr noundef nonnull align 8 dereferenceable(41) %4)
          to label %13 unwind label %.loopexit.split-lp

13:                                               ; preds = %11
  br i1 %12, label %18, label %14

14:                                               ; preds = %13
  %15 = invoke noundef nonnull align 8 dereferenceable(8) ptr @_ZStlsISt11char_traitsIcEERSt13basic_ostreamIcT_ES5_PKc(ptr noundef nonnull align 8 dereferenceable(8) @_ZSt4cerr, ptr noundef nonnull @.str)
          to label %.loopexit14 unwind label %.loopexit.split-lp

16:                                               ; preds = %2
  %17 = landingpad { ptr, i32 }
          cleanup
  br label %52

.loopexit:                                        ; preds = %33, %42
  %lpad.loopexit = landingpad { ptr, i32 }
          cleanup
  br label %51

.loopexit.split-lp:                               ; preds = %9, %11, %14, %18, %20, %22, %24, %36
  %lpad.loopexit.split-lp = landingpad { ptr, i32 }
          cleanup
  br label %51

18:                                               ; preds = %13
  %19 = invoke noundef nonnull align 8 dereferenceable(8) ptr @_ZStlsISt11char_traitsIcEERSt13basic_ostreamIcT_ES5_PKc(ptr noundef nonnull align 8 dereferenceable(8) @_ZSt4cout, ptr noundef nonnull @.str.1)
          to label %20 unwind label %.loopexit.split-lp

20:                                               ; preds = %18
  %21 = invoke noundef nonnull align 8 dereferenceable(8) ptr @_ZNSolsEPFRSoS_E(ptr noundef nonnull align 8 dereferenceable(8) %19, ptr noundef nonnull @_ZSt4endlIcSt11char_traitsIcEERSt13basic_ostreamIT_T0_ES6_)
          to label %22 unwind label %.loopexit.split-lp

22:                                               ; preds = %20
  %23 = invoke noundef nonnull align 8 dereferenceable(8) ptr @_ZStlsISt11char_traitsIcEERSt13basic_ostreamIcT_ES5_PKc(ptr noundef nonnull align 8 dereferenceable(8) %21, ptr noundef nonnull @.str.2)
          to label %24 unwind label %.loopexit.split-lp

24:                                               ; preds = %22
  %25 = invoke noundef nonnull align 8 dereferenceable(8) ptr @_ZNSolsEPFRSoS_E(ptr noundef nonnull align 8 dereferenceable(8) %23, ptr noundef nonnull @_ZSt4endlIcSt11char_traitsIcEERSt13basic_ostreamIT_T0_ES6_)
          to label %.preheader unwind label %.loopexit.split-lp

.preheader:                                       ; preds = %24
  %26 = getelementptr inbounds i8, ptr %5, i64 8
  %27 = getelementptr inbounds i8, ptr %5, i64 16
  %28 = getelementptr inbounds i8, ptr %8, i64 16
  %29 = getelementptr inbounds i8, ptr %8, i64 20
  %30 = getelementptr inbounds i8, ptr %8, i64 8
  br label %31

31:                                               ; preds = %.preheader, %44
  store i64 0, ptr %27, align 8
  store i32 33619968, ptr %5, align 8
  store ptr %3, ptr %26, align 8
  %32 = invoke noundef zeroext i1 @_ZN2cv12VideoCapture4readERKNS_12_OutputArrayE(ptr noundef nonnull align 8 dereferenceable(41) %4, ptr noundef nonnull align 8 dereferenceable(24) %5)
          to label %33 unwind label %38

33:                                               ; preds = %31
  %34 = invoke noundef zeroext i1 @_ZNK2cv3Mat5emptyEv(ptr noundef nonnull align 8 dereferenceable(96) %3)
          to label %35 unwind label %.loopexit

35:                                               ; preds = %33
  br i1 %34, label %36, label %40

36:                                               ; preds = %35
  %37 = invoke noundef nonnull align 8 dereferenceable(8) ptr @_ZStlsISt11char_traitsIcEERSt13basic_ostreamIcT_ES5_PKc(ptr noundef nonnull align 8 dereferenceable(8) @_ZSt4cerr, ptr noundef nonnull @.str.3)
          to label %.loopexit14 unwind label %.loopexit.split-lp

38:                                               ; preds = %31
  %39 = landingpad { ptr, i32 }
          cleanup
  br label %51

40:                                               ; preds = %35
  call void @_ZNSaIcEC1Ev(ptr noundef nonnull align 1 dereferenceable(1) %7) #5
  invoke void @_ZNSt7__cxx1112basic_stringIcSt11char_traitsIcESaIcEEC1EPKcRKS3_(ptr noundef nonnull align 8 dereferenceable(32) %6, ptr noundef nonnull @.str.4, ptr noundef nonnull align 1 dereferenceable(1) %7)
          to label %41 unwind label %46

41:                                               ; preds = %40
  store i32 0, ptr %28, align 8
  store i32 0, ptr %29, align 4
  store i32 16842752, ptr %8, align 8
  store ptr %3, ptr %30, align 8
  invoke void @_ZN2cv6imshowERKNSt7__cxx1112basic_stringIcSt11char_traitsIcESaIcEEERKNS_11_InputArrayE(ptr noundef nonnull align 8 dereferenceable(32) %6, ptr noundef nonnull align 8 dereferenceable(24) %8)
          to label %42 unwind label %48

42:                                               ; preds = %41
  call void @_ZNSt7__cxx1112basic_stringIcSt11char_traitsIcESaIcEED1Ev(ptr noundef nonnull align 8 dereferenceable(32) %6) #5
  call void @_ZNSaIcED1Ev(ptr noundef nonnull align 1 dereferenceable(1) %7) #5
  %43 = invoke noundef i32 @_ZN2cv7waitKeyEi(i32 noundef 5)
          to label %44 unwind label %.loopexit

44:                                               ; preds = %42
  %45 = icmp sgt i32 %43, -1
  br i1 %45, label %.loopexit14, label %31, !llvm.loop !5

46:                                               ; preds = %40
  %47 = landingpad { ptr, i32 }
          cleanup
  br label %50

48:                                               ; preds = %41
  %49 = landingpad { ptr, i32 }
          cleanup
  call void @_ZNSt7__cxx1112basic_stringIcSt11char_traitsIcESaIcEED1Ev(ptr noundef nonnull align 8 dereferenceable(32) %6) #5
  br label %50

50:                                               ; preds = %48, %46
  %.pn.pn = phi { ptr, i32 } [ %49, %48 ], [ %47, %46 ]
  call void @_ZNSaIcED1Ev(ptr noundef nonnull align 1 dereferenceable(1) %7) #5
  br label %51

.loopexit14:                                      ; preds = %44, %36, %14
  %.0 = phi i32 [ -1, %14 ], [ 0, %36 ], [ 0, %44 ]
  call void @_ZN2cv12VideoCaptureD1Ev(ptr noundef nonnull align 8 dereferenceable(41) %4) #5
  call void @_ZN2cv3MatD1Ev(ptr noundef nonnull align 8 dereferenceable(96) %3) #5
  ret i32 %.0

51:                                               ; preds = %.loopexit, %.loopexit.split-lp, %50, %38
  %.pn11 = phi { ptr, i32 } [ %.pn.pn, %50 ], [ %39, %38 ], [ %lpad.loopexit, %.loopexit ], [ %lpad.loopexit.split-lp, %.loopexit.split-lp ]
  call void @_ZN2cv12VideoCaptureD1Ev(ptr noundef nonnull align 8 dereferenceable(41) %4) #5
  br label %52

52:                                               ; preds = %51, %16
  %.pn11.pn = phi { ptr, i32 } [ %.pn11, %51 ], [ %17, %16 ]
  call void @_ZN2cv3MatD1Ev(ptr noundef nonnull align 8 dereferenceable(96) %3) #5
  resume { ptr, i32 } %.pn11.pn
}